; ModuleID = '29/1934.c'
source_filename = "29/1934.c"
target datalayout = "e-m:e-p270:32:32-p271:32:32-p272:64:64-i64:64-f80:128-n8:16:32:64-S128"
target triple = "x86_64-pc-linux-gnu"

@.str = private unnamed_addr constant [3 x i8] c"%d\00", align 1
@.str.1 = private unnamed_addr constant [6 x i8] c"%.3f\0A\00", align 1

; Function Attrs: noinline nounwind uwtable
define dso_local i32 @fibo(i32 %0) #0 {
  %2 = alloca i32, align 4
  %3 = alloca i32, align 4
  store i32 %0, i32* %2, align 4
  %4 = load i32, i32* %2, align 4
  %5 = icmp eq i32 %4, 1
  br i1 %5, label %6, label %7

6:                                                ; preds = %1
  store i32 1, i32* %3, align 4
  br label %20

7:                                                ; preds = %1
  %8 = load i32, i32* %2, align 4
  %9 = icmp eq i32 %8, 2
  br i1 %9, label %10, label %11

10:                                               ; preds = %7
  store i32 2, i32* %3, align 4
  br label %19

11:                                               ; preds = %7
  %12 = load i32, i32* %2, align 4
  %13 = sub nsw i32 %12, 1
  %14 = call i32 @fibo(i32 %13)
  %15 = load i32, i32* %2, align 4
  %16 = sub nsw i32 %15, 2
  %17 = call i32 @fibo(i32 %16)
  %18 = add nsw i32 %14, %17
  store i32 %18, i32* %3, align 4
  br label %19

19:                                               ; preds = %11, %10
  br label %20

20:                                               ; preds = %19, %6
  %21 = load i32, i32* %3, align 4
  ret i32 %21
}

; Function Attrs: noinline nounwind uwtable
define dso_local i32 @main() #0 {
  %1 = alloca i32, align 4
  %2 = alloca i32, align 4
  %3 = alloca i32, align 4
  %4 = alloca double, align 8
  %5 = alloca i32, align 4
  %6 = alloca i32, align 4
  %7 = alloca i32, align 4
  store i32 0, i32* %1, align 4
  store double 0.000000e+00, double* %4, align 8
  %8 = call i32 (i8*, ...) @__isoc99_scanf(i8* getelementptr inbounds ([3 x i8], [3 x i8]* @.str, i64 0, i64 0), i32* %2)
  store i32 1, i32* %5, align 4
  br label %9

9:                                                ; preds = %36, %0
  %10 = load i32, i32* %5, align 4
  %11 = load i32, i32* %2, align 4
  %12 = icmp sle i32 %10, %11
  br i1 %12, label %13, label %39

13:                                               ; preds = %9
  %14 = call i32 (i8*, ...) @__isoc99_scanf(i8* getelementptr inbounds ([3 x i8], [3 x i8]* @.str, i64 0, i64 0), i32* %7)
  store i32 1, i32* %6, align 4
  br label %15

15:                                               ; preds = %30, %13
  %16 = load i32, i32* %6, align 4
  %17 = load i32, i32* %7, align 4
  %18 = icmp sle i32 %16, %17
  br i1 %18, label %19, label %33

19:                                               ; preds = %15
  %20 = load double, double* %4, align 8
  %21 = load i32, i32* %6, align 4
  %22 = add nsw i32 %21, 1
  %23 = call i32 @fibo(i32 %22)
  %24 = sitofp i32 %23 to double
  %25 = load i32, i32* %6, align 4
  %26 = call i32 @fibo(i32 %25)
  %27 = sitofp i32 %26 to double
  %28 = fdiv double %24, %27
  %29 = fadd double %20, %28
  store double %29, double* %4, align 8
  br label %30

30:                                               ; preds = %19
  %31 = load i32, i32* %6, align 4
  %32 = add nsw i32 %31, 1
  store i32 %32, i32* %6, align 4
  br label %15

33:                                               ; preds = %15
  %34 = load double, double* %4, align 8
  %35 = call i32 (i8*, ...) @printf(i8* getelementptr inbounds ([6 x i8], [6 x i8]* @.str.1, i64 0, i64 0), double %34)
  store double 0.000000e+00, double* %4, align 8
  br label %36

36:                                               ; preds = %33
  %37 = load i32, i32* %5, align 4
  %38 = add nsw i32 %37, 1
  store i32 %38, i32* %5, align 4
  br label %9

39:                                               ; preds = %9
  ret i32 0
}

declare dso_local i32 @__isoc99_scanf(i8*, ...) #1

declare dso_local i32 @printf(i8*, ...) #1


!llvm.module.flags = !{!0}
!llvm.ident = !{!1}

!0 = !{i32 1, !"wchar_size", i32 4}
!1 = !{!"clang version 10.0.0-4ubuntu1 "}
